target datalayout = "e-m:e-p270:32:32-p271:32:32-p272:64:64-i64:64-i128:128-f80:128-n8:16:32:64-S128"
target triple = "x86_64-unknown-linux-gnu"

; Function Attrs: nounwind uwtable
define hidden i32 @DSA_do_verify(ptr noundef %digest, i64 noundef %digest_len, ptr noundef %sig, ptr noundef %dsa) #0 {
entry:
  %retval = alloca i32, align 4
  %digest.addr = alloca ptr, align 8
  %digest_len.addr = alloca i64, align 8
  %sig.addr = alloca ptr, align 8
  %dsa.addr = alloca ptr, align 8
  %valid = alloca i32, align 4
  store ptr %digest, ptr %digest.addr, align 8
  store i64 %digest_len, ptr %digest_len.addr, align 8
  store ptr %sig, ptr %sig.addr, align 8
  store ptr %dsa, ptr %dsa.addr, align 8
  %0 = load ptr, ptr %digest.addr, align 8
  %1 = load i64, ptr %digest_len.addr, align 8
  %2 = load ptr, ptr %sig.addr, align 8
  %3 = load ptr, ptr %dsa.addr, align 8
  %call = call i32 @DSA_do_check_signature(ptr noundef %valid, ptr noundef %0, i64 noundef %1, ptr noundef %2, ptr noundef %3)
  %tobool = icmp ne i32 %call, 0
  br i1 %tobool, label %if.end, label %if.then

if.then:                                          ; preds = %entry
  store i32 -1, ptr %retval, align 4
  br label %return

if.end:                                           ; preds = %entry
  %4 = load i32, ptr %valid, align 4
  store i32 %4, ptr %retval, align 4
  br label %return

return:                                           ; preds = %if.end, %if.then
  %5 = load i32, ptr %retval, align 4
  ret i32 %5
}