; Function Attrs: nounwind uwtable
define hidden i32 @DSA_do_verify(ptr noundef %digest, i64 noundef %digest_len, ptr noundef readonly captures(none) %sig, ptr noundef %dsa) local_unnamed_addr #0 {
entry:
  %valid = alloca i32, align 4
  %call = call i32 @DSA_do_check_signature(ptr noundef nonnull %valid, ptr noundef %digest, i64 noundef %digest_len, ptr noundef %sig, ptr noundef %dsa)
  %tobool.not = icmp eq i32 %call, 0
  %0 = load i32, ptr %valid, align 4
  %retval.0 = select i1 %tobool.not, i32 -1, i32 %0
  ret i32 %retval.0
}